target datalayout = "e-m:e-p270:32:32-p271:32:32-p272:64:64-i64:64-i128:128-f80:128-n8:16:32:64-S128"
target triple = "x86_64-pc-linux-gnu"

%struct._object = type { %union.anon, ptr }
%union.anon = type { i64 }
%struct.reversedobject = type { %struct._object, i64, ptr }
%struct.anon = type { i32, i32 }

@PyExc_IndexError = external global ptr, align 8
@PyExc_StopIteration = external global ptr, align 8

; Function Attrs: alwaysinline nounwind uwtable
define internal i32 @_Py_IsImmortal(ptr noundef %0) #4 {
  %2 = alloca ptr, align 8
  store ptr %0, ptr %2, align 8, !tbaa !4
  %3 = load ptr, ptr %2, align 8, !tbaa !4
  %4 = getelementptr inbounds nuw %struct._object, ptr %3, i32 0, i32 0
  %5 = getelementptr inbounds nuw %struct.anon, ptr %4, i32 0, i32 0
  %6 = load i32, ptr %5, align 8, !tbaa !38
  %7 = icmp slt i32 %6, 0
  %8 = zext i1 %7 to i32
  ret i32 %8
}

; Function Attrs: alwaysinline nounwind uwtable
define internal void @Py_DECREF(ptr noundef %0) #4 {
  %2 = alloca ptr, align 8
  store ptr %0, ptr %2, align 8, !tbaa !4
  %3 = load ptr, ptr %2, align 8, !tbaa !4
  %4 = call i32 @_Py_IsImmortal(ptr noundef %3)
  %5 = icmp ne i32 %4, 0
  br i1 %5, label %6, label %7

6:                                                ; preds = %1
  br label %16

7:                                                ; preds = %1
  %8 = load ptr, ptr %2, align 8, !tbaa !4
  %9 = getelementptr inbounds nuw %struct._object, ptr %8, i32 0, i32 0
  %10 = getelementptr inbounds nuw %struct.anon, ptr %9, i32 0, i32 0
  %11 = load i32, ptr %10, align 8, !tbaa !38
  %12 = add i32 %11, -1
  store i32 %12, ptr %10, align 8, !tbaa !38
  %13 = icmp eq i32 %12, 0
  br i1 %13, label %14, label %16

14:                                               ; preds = %7
  %15 = load ptr, ptr %2, align 8, !tbaa !4
  call void @_Py_Dealloc(ptr noundef %15)
  br label %16

16:                                               ; preds = %6, %14, %7
  ret void
}

; Function Attrs: nounwind uwtable
define internal ptr @reversed_next(ptr noundef %0) #0 {
  %2 = alloca ptr, align 8
  %3 = alloca ptr, align 8
  %4 = alloca ptr, align 8
  %5 = alloca ptr, align 8
  %6 = alloca i64, align 8
  %7 = alloca i32, align 4
  %8 = alloca ptr, align 8
  %9 = alloca ptr, align 8
  store ptr %0, ptr %3, align 8, !tbaa !4
  call void @llvm.lifetime.start.p0(i64 8, ptr %4) #7
  %10 = load ptr, ptr %3, align 8, !tbaa !4
  store ptr %10, ptr %4, align 8, !tbaa !9
  call void @llvm.lifetime.start.p0(i64 8, ptr %5) #7
  call void @llvm.lifetime.start.p0(i64 8, ptr %6) #7
  %11 = load ptr, ptr %4, align 8, !tbaa !9
  %12 = getelementptr inbounds nuw %struct.reversedobject, ptr %11, i32 0, i32 1
  %13 = load i64, ptr %12, align 8, !tbaa !35
  store i64 %13, ptr %6, align 8, !tbaa !30
  %14 = load i64, ptr %6, align 8, !tbaa !30
  %15 = icmp sge i64 %14, 0
  br i1 %15, label %16, label %40

16:                                               ; preds = %1
  %17 = load ptr, ptr %4, align 8, !tbaa !9
  %18 = getelementptr inbounds nuw %struct.reversedobject, ptr %17, i32 0, i32 2
  %19 = load ptr, ptr %18, align 8, !tbaa !33
  %20 = load i64, ptr %6, align 8, !tbaa !30
  %21 = call ptr @PySequence_GetItem(ptr noundef %19, i64 noundef %20)
  store ptr %21, ptr %5, align 8, !tbaa !4
  %22 = load ptr, ptr %5, align 8, !tbaa !4
  %23 = icmp ne ptr %22, null
  br i1 %23, label %24, label %30

24:                                               ; preds = %16
  %25 = load ptr, ptr %4, align 8, !tbaa !9
  %26 = getelementptr inbounds nuw %struct.reversedobject, ptr %25, i32 0, i32 1
  %27 = load i64, ptr %26, align 8, !tbaa !35
  %28 = add i64 %27, -1
  store i64 %28, ptr %26, align 8, !tbaa !35
  %29 = load ptr, ptr %5, align 8, !tbaa !4
  store ptr %29, ptr %2, align 8
  store i32 1, ptr %7, align 4
  br label %56

30:                                               ; preds = %16
  %31 = load ptr, ptr @PyExc_IndexError, align 8, !tbaa !4
  %32 = call i32 @PyErr_ExceptionMatches(ptr noundef %31)
  %33 = icmp ne i32 %32, 0
  br i1 %33, label %38, label %34

34:                                               ; preds = %30
  %35 = load ptr, ptr @PyExc_StopIteration, align 8, !tbaa !4
  %36 = call i32 @PyErr_ExceptionMatches(ptr noundef %35)
  %37 = icmp ne i32 %36, 0
  br i1 %37, label %38, label %39

38:                                               ; preds = %34, %30
  call void @PyErr_Clear()
  br label %39

39:                                               ; preds = %38, %34
  br label %40

40:                                               ; preds = %39, %1
  %41 = load ptr, ptr %4, align 8, !tbaa !9
  %42 = getelementptr inbounds nuw %struct.reversedobject, ptr %41, i32 0, i32 1
  store i64 -1, ptr %42, align 8, !tbaa !35
  br label %43

43:                                               ; preds = %40
  call void @llvm.lifetime.start.p0(i64 8, ptr %8) #7
  %44 = load ptr, ptr %4, align 8, !tbaa !9
  %45 = getelementptr inbounds nuw %struct.reversedobject, ptr %44, i32 0, i32 2
  store ptr %45, ptr %8, align 8, !tbaa !31
  call void @llvm.lifetime.start.p0(i64 8, ptr %9) #7
  %46 = load ptr, ptr %8, align 8, !tbaa !31
  %47 = load ptr, ptr %46, align 8, !tbaa !4
  store ptr %47, ptr %9, align 8, !tbaa !4
  %48 = load ptr, ptr %9, align 8, !tbaa !4
  %49 = icmp ne ptr %48, null
  br i1 %49, label %50, label %53

50:                                               ; preds = %43
  %51 = load ptr, ptr %8, align 8, !tbaa !31
  store ptr null, ptr %51, align 8, !tbaa !4
  %52 = load ptr, ptr %9, align 8, !tbaa !4
  call void @Py_DECREF(ptr noundef %52)
  br label %53

53:                                               ; preds = %50, %43
  call void @llvm.lifetime.end.p0(i64 8, ptr %9) #7
  call void @llvm.lifetime.end.p0(i64 8, ptr %8) #7
  br label %54

54:                                               ; preds = %53
  br label %55

55:                                               ; preds = %54
  store ptr null, ptr %2, align 8
  store i32 1, ptr %7, align 4
  br label %56

56:                                               ; preds = %55, %24
  call void @llvm.lifetime.end.p0(i64 8, ptr %6) #7
  call void @llvm.lifetime.end.p0(i64 8, ptr %5) #7
  call void @llvm.lifetime.end.p0(i64 8, ptr %4) #7
  %57 = load ptr, ptr %2, align 8
  ret ptr %57
}