; Function Attrs: nounwind uwtable
define internal ptr @reversed_next(ptr noundef captures(none) %0) #0 {
  %2 = getelementptr inbounds nuw i8, ptr %0, i64 16
  %3 = load i64, ptr %2, align 8, !tbaa !119
  %4 = icmp sgt i64 %3, -1
  br i1 %4, label %5, label %19

5:                                                ; preds = %1
  %6 = getelementptr inbounds nuw i8, ptr %0, i64 24
  %7 = load ptr, ptr %6, align 8, !tbaa !117
  %8 = tail call ptr @PySequence_GetItem(ptr noundef %7, i64 noundef %3) #4
  %.not = icmp eq ptr %8, null
  br i1 %.not, label %12, label %9

9:                                                ; preds = %5
  %10 = load i64, ptr %2, align 8, !tbaa !119
  %11 = add i64 %10, -1
  store i64 %11, ptr %2, align 8, !tbaa !119
  br label %Py_DECREF.exit

12:                                               ; preds = %5
  %13 = load ptr, ptr @PyExc_IndexError, align 8, !tbaa !29
  %14 = tail call i32 @PyErr_ExceptionMatches(ptr noundef %13) #4
  %.not17 = icmp eq i32 %14, 0
  br i1 %.not17, label %15, label %18

15:                                               ; preds = %12
  %16 = load ptr, ptr @PyExc_StopIteration, align 8, !tbaa !29
  %17 = tail call i32 @PyErr_ExceptionMatches(ptr noundef %16) #4
  %.not18 = icmp eq i32 %17, 0
  br i1 %.not18, label %19, label %18

18:                                               ; preds = %15, %12
  tail call void @PyErr_Clear() #4
  br label %19

19:                                               ; preds = %15, %18, %1
  store i64 -1, ptr %2, align 8, !tbaa !119
  %20 = getelementptr inbounds nuw i8, ptr %0, i64 24
  %21 = load ptr, ptr %20, align 8, !tbaa !29
  %.not19 = icmp eq ptr %21, null
  br i1 %.not19, label %Py_DECREF.exit, label %22

22:                                               ; preds = %19
  store ptr null, ptr %20, align 8, !tbaa !29
  %23 = load i32, ptr %21, align 8, !tbaa !13
  %.not.i = icmp sgt i32 %23, -1
  br i1 %.not.i, label %24, label %Py_DECREF.exit

24:                                               ; preds = %22
  %25 = add nsw i32 %23, -1
  store i32 %25, ptr %21, align 8, !tbaa !13
  %26 = icmp eq i32 %25, 0
  br i1 %26, label %27, label %Py_DECREF.exit

27:                                               ; preds = %24
  tail call void @_Py_Dealloc(ptr noundef nonnull %21) #4
  br label %Py_DECREF.exit

Py_DECREF.exit:                                   ; preds = %27, %24, %22, %19, %9
  %.0 = phi ptr [ %8, %9 ], [ null, %19 ], [ null, %22 ], [ null, %24 ], [ null, %27 ]
  ret ptr %.0
}